; Function Attrs: nounwind uwtable
define dso_local void @cbuf_destroy(ptr noundef %0) local_unnamed_addr #0 {
  %2 = alloca ptr, align 8
  store ptr %0, ptr %2, align 8
  %3 = tail call i32 @pthread_mutex_lock(ptr noundef %0) #15
  %.not = icmp eq i32 %3, 0
  br i1 %.not, label %6, label %4

4:                                                ; preds = %1
  %5 = tail call ptr @__errno_location() #14
  store i32 %3, ptr %5, align 4
  tail call void (ptr, ...) @fatal_abort(ptr noundef nonnull @.str.2, ptr noundef nonnull @__func__.cbuf_destroy) #16
  unreachable

6:                                                ; preds = %1
  %7 = getelementptr inbounds nuw i8, ptr %0, i64 80
  tail call void @slurm_xfree(ptr noundef nonnull %7) #15
  %8 = tail call i32 @pthread_mutex_unlock(ptr noundef %0) #15
  %.not8 = icmp eq i32 %8, 0
  br i1 %.not8, label %11, label %9

9:                                                ; preds = %6
  %10 = tail call ptr @__errno_location() #14
  store i32 %8, ptr %10, align 4
  tail call void (ptr, ...) @fatal_abort(ptr noundef nonnull @.str.3, ptr noundef nonnull @__func__.cbuf_destroy) #16
  unreachable

11:                                               ; preds = %6
  %12 = tail call i32 @pthread_mutex_destroy(ptr noundef nonnull %0) #15
  %.not9 = icmp eq i32 %12, 0
  br i1 %.not9, label %15, label %13

13:                                               ; preds = %11
  %14 = tail call ptr @__errno_location() #14
  store i32 %12, ptr %14, align 4
  tail call void (ptr, ...) @fatal_abort(ptr noundef nonnull @.str.4, ptr noundef nonnull @__func__.cbuf_destroy) #16
  unreachable

15:                                               ; preds = %11
  call void @slurm_xfree(ptr noundef nonnull %2) #15
  ret void
}